target datalayout = "e-m:e-p270:32:32-p271:32:32-p272:64:64-i64:64-i128:128-f80:128-n8:16:32:64-S128"
target triple = "x86_64-pc-linux-gnu"

%class.LogTagSet = type { ptr, i64, [5 x i32], [4 x i8], %class.LogOutputList, %class.LogDecorators, ptr }
%class.LogOutputList = type <{ [6 x ptr], i32, [4 x i8] }>
%class.LogDecorators = type { i32 }
%class.ObjectMonitor = type { %class.markWord, %class.WeakHandle, [48 x i8], ptr, i64, [48 x i8], ptr, i64, ptr, ptr, ptr, ptr, i32, i32, ptr, i32, i32 }
%class.markWord = type { i64 }
%class.WeakHandle = type { ptr }
%"struct.Atomic::PlatformCmpxchg" = type { i8 }
%"struct.Atomic::PlatformLoad.26" = type { i8 }
%"struct.Atomic::CmpxchgImpl.31" = type { i8 }
%"struct.Atomic::LoadImpl.35" = type { i8 }

@_ZN13ObjectMonitor14Knob_SpinLimitE = hidden global i32 5000, align 4
@_ZN16LogTagSetMappingILN6LogTag4typeE90ELS1_106ELS1_0ELS1_0ELS1_0ELS1_0EE7_tagsetE = linkonce_odr hidden global %class.LogTagSet zeroinitializer, comdat, align 8
@.str.54 = private unnamed_addr constant [64 x i8] c"try_set_owner_from(): mid=0x%016lx, prev=0x%016lx, new=0x%016lx\00", align 1
@_ZL12Knob_Poverty = internal global i32 1000, align 4
@_ZL10Knob_Bonus = internal global i32 100, align 4

; Function Attrs: mustprogress nounwind uwtable
define linkonce_odr hidden noundef zeroext i1 @_ZNK13LogOutputList8is_levelEN8LogLevel4typeE(ptr noundef nonnull align 8 dereferenceable(52) %0, i32 noundef %1) #1 comdat align 2 {
  %3 = alloca ptr, align 8
  %4 = alloca i32, align 4
  store ptr %0, ptr %3, align 8
  store i32 %1, ptr %4, align 4
  %5 = load ptr, ptr %3, align 8
  %6 = getelementptr inbounds %class.LogOutputList, ptr %5, i32 0, i32 0
  %7 = load i32, ptr %4, align 4
  %8 = zext i32 %7 to i64
  %9 = getelementptr inbounds [6 x ptr], ptr %6, i64 0, i64 %8
  %10 = load volatile ptr, ptr %9, align 8
  %11 = icmp ne ptr %10, null
  ret i1 %11
}

; Function Attrs: mustprogress nounwind uwtable
define linkonce_odr hidden noundef ptr @_ZNK6Atomic15PlatformCmpxchgILm8EEclIPvEET_PVS4_S4_S4_19atomic_memory_order(ptr noundef nonnull align 1 dereferenceable(1) %0, ptr noundef %1, ptr noundef %2, ptr noundef %3, i32 noundef %4) #1 comdat align 2 {
  %6 = alloca ptr, align 8
  %7 = alloca ptr, align 8
  %8 = alloca ptr, align 8
  %9 = alloca ptr, align 8
  %10 = alloca i32, align 4
  store ptr %0, ptr %6, align 8
  store ptr %1, ptr %7, align 8
  store ptr %2, ptr %8, align 8
  store ptr %3, ptr %9, align 8
  store i32 %4, ptr %10, align 4
  %11 = load ptr, ptr %9, align 8
  %12 = load ptr, ptr %8, align 8
  %13 = load ptr, ptr %7, align 8
  %14 = call ptr asm sideeffect "lock cmpxchgq $1,($3)", "={ax},r,{ax},r,~{cc},~{memory},~{dirflag},~{fpsr},~{flags}"(ptr %11, ptr %12, ptr %13) #8, !srcloc !31
  store ptr %14, ptr %9, align 8
  %15 = load ptr, ptr %9, align 8
  ret ptr %15
}

; Function Attrs: mustprogress nounwind uwtable
define linkonce_odr hidden noundef ptr @_ZNK6Atomic12PlatformLoadILm8EEclIPvEET_PVKS4_(ptr noundef nonnull align 1 dereferenceable(1) %0, ptr noundef %1) #1 comdat align 2 {
  %3 = alloca ptr, align 8
  %4 = alloca ptr, align 8
  store ptr %0, ptr %3, align 8
  store ptr %1, ptr %4, align 8
  %5 = load ptr, ptr %4, align 8
  %6 = load volatile ptr, ptr %5, align 8
  ret ptr %6
}

; Function Attrs: mustprogress nounwind uwtable
define linkonce_odr hidden noundef zeroext i1 @_ZNK9LogTagSet8is_levelEN8LogLevel4typeE(ptr noundef nonnull align 8 dereferenceable(112) %0, i32 noundef %1) #1 comdat align 2 {
  %3 = alloca ptr, align 8
  %4 = alloca i32, align 4
  store ptr %0, ptr %3, align 8
  store i32 %1, ptr %4, align 4
  %5 = load ptr, ptr %3, align 8
  %6 = getelementptr inbounds %class.LogTagSet, ptr %5, i32 0, i32 4
  %7 = load i32, ptr %4, align 4
  %8 = call noundef zeroext i1 @_ZNK13LogOutputList8is_levelEN8LogLevel4typeE(ptr noundef nonnull align 8 dereferenceable(52) %6, i32 noundef %7)
  ret i1 %8
}

; Function Attrs: mustprogress nounwind uwtable
define linkonce_odr hidden noundef nonnull align 8 dereferenceable(112) ptr @_ZN16LogTagSetMappingILN6LogTag4typeE90ELS1_106ELS1_0ELS1_0ELS1_0ELS1_0EE6tagsetEv() #1 comdat align 2 {
  ret ptr @_ZN16LogTagSetMappingILN6LogTag4typeE90ELS1_106ELS1_0ELS1_0ELS1_0ELS1_0EE7_tagsetE
}

; Function Attrs: mustprogress nounwind uwtable
define linkonce_odr hidden noundef ptr @_ZNK6Atomic11CmpxchgImplIPvS1_S1_vEclEPVS1_S1_S1_19atomic_memory_order(ptr noundef nonnull align 1 dereferenceable(1) %0, ptr noundef %1, ptr noundef %2, ptr noundef %3, i32 noundef %4) #1 comdat align 2 {
  %6 = alloca ptr, align 8
  %7 = alloca ptr, align 8
  %8 = alloca ptr, align 8
  %9 = alloca ptr, align 8
  %10 = alloca i32, align 4
  %11 = alloca ptr, align 8
  %12 = alloca ptr, align 8
  %13 = alloca %"struct.Atomic::PlatformCmpxchg", align 1
  store ptr %0, ptr %6, align 8
  store ptr %1, ptr %7, align 8
  store ptr %2, ptr %8, align 8
  store ptr %3, ptr %9, align 8
  store i32 %4, ptr %10, align 4
  %14 = load ptr, ptr %9, align 8
  store ptr %14, ptr %11, align 8
  %15 = load ptr, ptr %8, align 8
  store ptr %15, ptr %12, align 8
  %16 = load ptr, ptr %7, align 8
  %17 = load ptr, ptr %12, align 8
  %18 = load ptr, ptr %11, align 8
  %19 = load i32, ptr %10, align 4
  %20 = call noundef ptr @_ZNK6Atomic15PlatformCmpxchgILm8EEclIPvEET_PVS4_S4_S4_19atomic_memory_order(ptr noundef nonnull align 1 dereferenceable(1) %13, ptr noundef %16, ptr noundef %17, ptr noundef %18, i32 noundef %19)
  ret ptr %20
}

; Function Attrs: mustprogress nounwind uwtable
define linkonce_odr hidden noundef ptr @_ZNK6Atomic8LoadImplIPvNS_12PlatformLoadILm8EEEvEclEPVKS1_(ptr noundef nonnull align 1 dereferenceable(1) %0, ptr noundef %1) #1 comdat align 2 {
  %3 = alloca ptr, align 8
  %4 = alloca ptr, align 8
  %5 = alloca %"struct.Atomic::PlatformLoad.26", align 1
  store ptr %0, ptr %3, align 8
  store ptr %1, ptr %4, align 8
  %6 = load ptr, ptr %4, align 8
  %7 = call noundef ptr @_ZNK6Atomic12PlatformLoadILm8EEclIPvEET_PVKS4_(ptr noundef nonnull align 1 dereferenceable(1) %5, ptr noundef %6)
  ret ptr %7
}

; Function Attrs: mustprogress nounwind uwtable
define linkonce_odr hidden noundef i64 @_Z3p2iPVKv(ptr noundef %0) #1 comdat {
  %2 = alloca ptr, align 8
  store ptr %0, ptr %2, align 8
  %3 = load ptr, ptr %2, align 8
  %4 = ptrtoint ptr %3 to i64
  ret i64 %4
}

; Function Attrs: mustprogress nounwind uwtable
define linkonce_odr hidden noundef zeroext i1 @_ZN7LogImplILN6LogTag4typeE90ELS1_106ELS1_0ELS1_0ELS1_0ELS1_0EE8is_levelEN8LogLevel4typeE(i32 noundef %0) #1 comdat align 2 {
  %2 = alloca i32, align 4
  store i32 %0, ptr %2, align 4
  %3 = call noundef nonnull align 8 dereferenceable(112) ptr @_ZN16LogTagSetMappingILN6LogTag4typeE90ELS1_106ELS1_0ELS1_0ELS1_0ELS1_0EE6tagsetEv()
  %4 = load i32, ptr %2, align 4
  %5 = call noundef zeroext i1 @_ZNK9LogTagSet8is_levelEN8LogLevel4typeE(ptr noundef nonnull align 8 dereferenceable(112) %3, i32 noundef %4)
  ret i1 %5
}

; Function Attrs: mustprogress nounwind uwtable
define linkonce_odr hidden noundef ptr @_ZN6Atomic7cmpxchgIPvS1_S1_EET_PVS2_T0_T1_19atomic_memory_order(ptr noundef %0, ptr noundef %1, ptr noundef %2, i32 noundef %3) #1 comdat align 2 {
  %5 = alloca ptr, align 8
  %6 = alloca ptr, align 8
  %7 = alloca ptr, align 8
  %8 = alloca i32, align 4
  %9 = alloca %"struct.Atomic::CmpxchgImpl.31", align 1
  store ptr %0, ptr %5, align 8
  store ptr %1, ptr %6, align 8
  store ptr %2, ptr %7, align 8
  store i32 %3, ptr %8, align 4
  %10 = load ptr, ptr %5, align 8
  %11 = load ptr, ptr %6, align 8
  %12 = load ptr, ptr %7, align 8
  %13 = load i32, ptr %8, align 4
  %14 = call noundef ptr @_ZNK6Atomic11CmpxchgImplIPvS1_S1_vEclEPVS1_S1_S1_19atomic_memory_order(ptr noundef nonnull align 1 dereferenceable(1) %9, ptr noundef %10, ptr noundef %11, ptr noundef %12, i32 noundef %13)
  ret ptr %14
}

; Function Attrs: mustprogress nounwind uwtable
define linkonce_odr hidden noundef ptr @_ZN6Atomic4loadIPvEET_PVKS2_(ptr noundef %0) #1 comdat align 2 {
  %2 = alloca ptr, align 8
  %3 = alloca %"struct.Atomic::LoadImpl.35", align 1
  store ptr %0, ptr %2, align 8
  %4 = load ptr, ptr %2, align 8
  %5 = call noundef ptr @_ZNK6Atomic8LoadImplIPvNS_12PlatformLoadILm8EEEvEclEPVKS1_(ptr noundef nonnull align 1 dereferenceable(1) %3, ptr noundef %4)
  ret ptr %5
}

; Function Attrs: mustprogress nounwind uwtable
define linkonce_odr hidden noundef ptr @_ZN13ObjectMonitor18try_set_owner_fromEPvS0_(ptr noundef nonnull align 8 dereferenceable(200) %0, ptr noundef %1, ptr noundef %2) #1 comdat align 2 {
  %4 = alloca ptr, align 8
  %5 = alloca ptr, align 8
  %6 = alloca ptr, align 8
  %7 = alloca ptr, align 8
  store ptr %0, ptr %4, align 8
  store ptr %1, ptr %5, align 8
  store ptr %2, ptr %6, align 8
  %8 = load ptr, ptr %4, align 8
  %9 = getelementptr inbounds %class.ObjectMonitor, ptr %8, i32 0, i32 3
  %10 = load ptr, ptr %5, align 8
  %11 = load ptr, ptr %6, align 8
  %12 = call noundef ptr @_ZN6Atomic7cmpxchgIPvS1_S1_EET_PVS2_T0_T1_19atomic_memory_order(ptr noundef %9, ptr noundef %10, ptr noundef %11, i32 noundef 8)
  store ptr %12, ptr %7, align 8
  %13 = load ptr, ptr %7, align 8
  %14 = load ptr, ptr %5, align 8
  %15 = icmp eq ptr %13, %14
  br i1 %15, label %16, label %26

16:                                               ; preds = %3
  %17 = call noundef zeroext i1 @_ZN7LogImplILN6LogTag4typeE90ELS1_106ELS1_0ELS1_0ELS1_0ELS1_0EE8is_levelEN8LogLevel4typeE(i32 noundef 1)
  br i1 %17, label %19, label %18

18:                                               ; preds = %16
  br label %25

19:                                               ; preds = %16
  %20 = call noundef i64 @_Z3p2iPVKv(ptr noundef %8)
  %21 = load ptr, ptr %7, align 8
  %22 = call noundef i64 @_Z3p2iPVKv(ptr noundef %21)
  %23 = load ptr, ptr %6, align 8
  %24 = call noundef i64 @_Z3p2iPVKv(ptr noundef %23)
  call void (ptr, ...) @_ZN7LogImplILN6LogTag4typeE90ELS1_106ELS1_0ELS1_0ELS1_0ELS1_0EE5writeILN8LogLevel4typeE1EEEvPKcz(ptr noundef @.str.54, i64 noundef %20, i64 noundef %22, i64 noundef %24)
  br label %25

25:                                               ; preds = %19, %18
  br label %26

26:                                               ; preds = %25, %3
  %27 = load ptr, ptr %7, align 8
  ret ptr %27
}

; Function Attrs: mustprogress nounwind uwtable
define linkonce_odr hidden noundef ptr @_ZNK13ObjectMonitor9owner_rawEv(ptr noundef nonnull align 8 dereferenceable(200) %0) #1 comdat align 2 {
  %2 = alloca ptr, align 8
  store ptr %0, ptr %2, align 8
  %3 = load ptr, ptr %2, align 8
  %4 = getelementptr inbounds %class.ObjectMonitor, ptr %3, i32 0, i32 3
  %5 = call noundef ptr @_ZN6Atomic4loadIPvEET_PVKS2_(ptr noundef %4)
  ret ptr %5
}

; Function Attrs: mustprogress nounwind uwtable
define internal noundef i32 @_ZL9adjust_upi(i32 noundef %0) #1 {
  %2 = alloca i32, align 4
  %3 = alloca i32, align 4
  %4 = alloca i32, align 4
  store i32 %0, ptr %3, align 4
  %5 = load i32, ptr %3, align 4
  store i32 %5, ptr %4, align 4
  %6 = load i32, ptr %4, align 4
  %7 = load i32, ptr @_ZN13ObjectMonitor14Knob_SpinLimitE, align 4
  %8 = icmp slt i32 %6, %7
  br i1 %8, label %9, label %19

9:                                                ; preds = %1
  %10 = load i32, ptr %4, align 4
  %11 = load i32, ptr @_ZL12Knob_Poverty, align 4
  %12 = icmp slt i32 %10, %11
  br i1 %12, label %13, label %15

13:                                               ; preds = %9
  %14 = load i32, ptr @_ZL12Knob_Poverty, align 4
  store i32 %14, ptr %4, align 4
  br label %15

15:                                               ; preds = %13, %9
  %16 = load i32, ptr %4, align 4
  %17 = load i32, ptr @_ZL10Knob_Bonus, align 4
  %18 = add nsw i32 %16, %17
  store i32 %18, ptr %2, align 4
  br label %21

19:                                               ; preds = %1
  %20 = load i32, ptr %3, align 4
  store i32 %20, ptr %2, align 4
  br label %21

21:                                               ; preds = %19, %15
  %22 = load i32, ptr %2, align 4
  ret i32 %22
}

; Function Attrs: mustprogress nounwind uwtable
define hidden noundef i32 @_ZN13ObjectMonitor7TryLockEP10JavaThread(ptr noundef nonnull align 8 dereferenceable(200) %0, ptr noundef %1) #1 align 2 {
  %3 = alloca i32, align 4
  %4 = alloca ptr, align 8
  %5 = alloca ptr, align 8
  %6 = alloca ptr, align 8
  store ptr %0, ptr %4, align 8
  store ptr %1, ptr %5, align 8
  %7 = load ptr, ptr %4, align 8
  %8 = call noundef ptr @_ZNK13ObjectMonitor9owner_rawEv(ptr noundef nonnull align 8 dereferenceable(200) %7)
  store ptr %8, ptr %6, align 8
  %9 = load ptr, ptr %6, align 8
  %10 = icmp ne ptr %9, null
  br i1 %10, label %11, label %12

11:                                               ; preds = %2
  store i32 0, ptr %3, align 4
  br label %18

12:                                               ; preds = %2
  %13 = load ptr, ptr %5, align 8
  %14 = call noundef ptr @_ZN13ObjectMonitor18try_set_owner_fromEPvS0_(ptr noundef nonnull align 8 dereferenceable(200) %7, ptr noundef null, ptr noundef %13)
  %15 = icmp eq ptr %14, null
  br i1 %15, label %16, label %17

16:                                               ; preds = %12
  store i32 1, ptr %3, align 4
  br label %18

17:                                               ; preds = %12
  store i32 -1, ptr %3, align 4
  br label %18

18:                                               ; preds = %17, %16, %11
  %19 = load i32, ptr %3, align 4
  ret i32 %19
}

; Function Attrs: mustprogress nounwind uwtable
define hidden noundef zeroext i1 @_ZN13ObjectMonitor16short_fixed_spinEP10JavaThreadib(ptr noundef nonnull align 8 dereferenceable(200) %0, ptr noundef %1, i32 noundef %2, i1 noundef zeroext %3) #1 align 2 {
  %5 = alloca i1, align 1
  %6 = alloca ptr, align 8
  %7 = alloca ptr, align 8
  %8 = alloca i32, align 4
  %9 = alloca i8, align 1
  %10 = alloca i32, align 4
  %11 = alloca i32, align 4
  store ptr %0, ptr %6, align 8
  store ptr %1, ptr %7, align 8
  store i32 %2, ptr %8, align 4
  %12 = zext i1 %3 to i8
  store i8 %12, ptr %9, align 1
  %13 = load ptr, ptr %6, align 8
  store i32 0, ptr %10, align 4
  br label %14

14:                                               ; preds = %39, %4
  %15 = load i32, ptr %10, align 4
  %16 = load i32, ptr %8, align 4
  %17 = icmp slt i32 %15, %16
  br i1 %17, label %18, label %42

18:                                               ; preds = %14
  %19 = load ptr, ptr %7, align 8
  %20 = call noundef i32 @_ZN13ObjectMonitor7TryLockEP10JavaThread(ptr noundef nonnull align 8 dereferenceable(200) %13, ptr noundef %19)
  store i32 %20, ptr %11, align 4
  %21 = load i32, ptr %11, align 4
  %22 = icmp eq i32 %21, 1
  br i1 %22, label %23, label %32

23:                                               ; preds = %18
  %24 = load i8, ptr %9, align 1
  %25 = trunc i8 %24 to i1
  br i1 %25, label %26, label %31

26:                                               ; preds = %23
  %27 = getelementptr inbounds %class.ObjectMonitor, ptr %13, i32 0, i32 12
  %28 = load volatile i32, ptr %27, align 8
  %29 = call noundef i32 @_ZL9adjust_upi(i32 noundef %28)
  %30 = getelementptr inbounds %class.ObjectMonitor, ptr %13, i32 0, i32 12
  store volatile i32 %29, ptr %30, align 8
  br label %31

31:                                               ; preds = %26, %23
  store i1 true, ptr %5, align 1
  br label %43

32:                                               ; preds = %18
  %33 = load i32, ptr %11, align 4
  %34 = icmp eq i32 %33, -1
  br i1 %34, label %35, label %36

35:                                               ; preds = %32
  br label %42

36:                                               ; preds = %32
  br label %37

37:                                               ; preds = %36
  %38 = call i32 @SpinPause()
  br label %39

39:                                               ; preds = %37
  %40 = load i32, ptr %10, align 4
  %41 = add nsw i32 %40, 1
  store i32 %41, ptr %10, align 4
  br label %14, !llvm.loop !29

42:                                               ; preds = %35, %14
  store i1 false, ptr %5, align 1
  br label %43

43:                                               ; preds = %42, %31
  %44 = load i1, ptr %5, align 1
  ret i1 %44
}