; Function Attrs: mustprogress nounwind uwtable
define hidden noundef zeroext i1 @_ZN13ObjectMonitor16short_fixed_spinEP10JavaThreadib(ptr noundef nonnull align 8 dereferenceable(200) %0, ptr noundef %1, i32 noundef %2, i1 noundef zeroext %3) local_unnamed_addr #0 align 2 {
  %5 = icmp sgt i32 %2, 0
  br i1 %5, label %.lr.ph, label %_ZN13ObjectMonitor7TryLockEP10JavaThread.exit

.lr.ph:                                           ; preds = %4
  %6 = getelementptr inbounds i8, ptr %0, i64 64
  br label %7

7:                                                ; preds = %.lr.ph, %24
  %.0813 = phi i32 [ 0, %.lr.ph ], [ %26, %24 ]
  %8 = load volatile ptr, ptr %6, align 8
  %.not.i = icmp eq ptr %8, null
  br i1 %.not.i, label %9, label %24

9:                                                ; preds = %7
  %10 = tail call noundef ptr asm sideeffect "lock cmpxchgq $1,($3)", "={ax},r,{ax},r,~{cc},~{memory},~{dirflag},~{fpsr},~{flags}"(ptr %1, ptr null, ptr nonnull %6) #12, !srcloc !8
  %11 = icmp eq ptr %10, null
  br i1 %11, label %12, label %_ZN13ObjectMonitor7TryLockEP10JavaThread.exit

12:                                               ; preds = %9
  %13 = load volatile ptr, ptr getelementptr inbounds (i8, ptr @_ZN16LogTagSetMappingILN6LogTag4typeE90ELS1_106ELS1_0ELS1_0ELS1_0ELS1_0EE7_tagsetE, i64 48), align 8
  %.not.i.i = icmp eq ptr %13, null
  br i1 %.not.i.i, label %17, label %14

14:                                               ; preds = %12
  %15 = ptrtoint ptr %0 to i64
  %16 = ptrtoint ptr %1 to i64
  tail call void (ptr, ...) @_ZN7LogImplILN6LogTag4typeE90ELS1_106ELS1_0ELS1_0ELS1_0ELS1_0EE5writeILN8LogLevel4typeE1EEEvPKcz(ptr noundef nonnull @.str.54, i64 noundef %15, i64 noundef 0, i64 noundef %16)
  br label %17

17:                                               ; preds = %12, %14
  br i1 %3, label %18, label %_ZN13ObjectMonitor7TryLockEP10JavaThread.exit

18:                                               ; preds = %17
  %19 = getelementptr inbounds i8, ptr %0, i64 176
  %20 = load volatile i32, ptr %19, align 8
  %21 = load i32, ptr @_ZN13ObjectMonitor14Knob_SpinLimitE, align 4
  %22 = icmp sgt i32 %21, %20
  %spec.select.i = tail call i32 @llvm.smax.i32(i32 %20, i32 1000)
  %23 = add nuw nsw i32 %spec.select.i, 100
  %.06.i = select i1 %22, i32 %23, i32 %20
  store volatile i32 %.06.i, ptr %19, align 8
  br label %_ZN13ObjectMonitor7TryLockEP10JavaThread.exit

24:                                               ; preds = %7
  %25 = tail call i32 @SpinPause() #12
  %26 = add nuw nsw i32 %.0813, 1
  %exitcond.not = icmp eq i32 %26, %2
  br i1 %exitcond.not, label %_ZN13ObjectMonitor7TryLockEP10JavaThread.exit, label %7, !llvm.loop !19

_ZN13ObjectMonitor7TryLockEP10JavaThread.exit:    ; preds = %24, %4, %9, %17, %18
  %.0 = phi i1 [ true, %18 ], [ true, %17 ], [ false, %9 ], [ false, %4 ], [ false, %24 ]
  ret i1 %.0
}